target datalayout = "e-m:e-p270:32:32-p271:32:32-p272:64:64-i64:64-i128:128-f80:128-n8:16:32:64-S128"
target triple = "x86_64-pc-linux-gnu"

%struct.Min_Cube_t_ = type { ptr, i32, [1 x i32] }
%struct.Min_Man_t_ = type { i32, i32, ptr, ptr, ptr, [2 x ptr], [2 x ptr], ptr, ptr, i32, ptr }

; Function Attrs: nounwind uwtable
define void @Min_CoverExpand(ptr noundef %0, ptr noundef %1) #0 {
  %3 = alloca ptr, align 8
  %4 = alloca ptr, align 8
  %5 = alloca ptr, align 8
  %6 = alloca ptr, align 8
  store ptr %0, ptr %3, align 8, !tbaa !27
  store ptr %1, ptr %4, align 8, !tbaa !8
  call void @llvm.lifetime.start.p0(i64 8, ptr %5) #8
  call void @llvm.lifetime.start.p0(i64 8, ptr %6) #8
  %7 = load ptr, ptr %3, align 8, !tbaa !27
  %8 = load ptr, ptr %3, align 8, !tbaa !27
  %9 = getelementptr inbounds nuw %struct.Min_Man_t_, ptr %8, i32 0, i32 0
  %10 = load i32, ptr %9, align 8, !tbaa !29
  call void @Min_ManClean(ptr noundef %7, i32 noundef %10)
  %11 = load ptr, ptr %4, align 8, !tbaa !8
  store ptr %11, ptr %5, align 8, !tbaa !8
  %12 = load ptr, ptr %5, align 8, !tbaa !8
  %13 = icmp ne ptr %12, null
  br i1 %13, label %14, label %18

14:                                               ; preds = %2
  %15 = load ptr, ptr %5, align 8, !tbaa !8
  %16 = getelementptr inbounds nuw %struct.Min_Cube_t_, ptr %15, i32 0, i32 0
  %17 = load ptr, ptr %16, align 8, !tbaa !20
  br label %19

18:                                               ; preds = %2
  br label %19

19:                                               ; preds = %18, %14
  %20 = phi ptr [ %17, %14 ], [ null, %18 ]
  store ptr %20, ptr %6, align 8, !tbaa !8
  br label %21

21:                                               ; preds = %60, %19
  %22 = load ptr, ptr %5, align 8, !tbaa !8
  %23 = icmp ne ptr %22, null
  br i1 %23, label %24, label %62

24:                                               ; preds = %21
  %25 = load ptr, ptr %3, align 8, !tbaa !27
  %26 = getelementptr inbounds nuw %struct.Min_Man_t_, ptr %25, i32 0, i32 10
  %27 = load ptr, ptr %26, align 8, !tbaa !33
  %28 = load ptr, ptr %5, align 8, !tbaa !8
  %29 = getelementptr inbounds nuw %struct.Min_Cube_t_, ptr %28, i32 0, i32 1
  %30 = load i32, ptr %29, align 8
  %31 = lshr i32 %30, 22
  %32 = zext i32 %31 to i64
  %33 = getelementptr inbounds nuw ptr, ptr %27, i64 %32
  %34 = load ptr, ptr %33, align 8, !tbaa !8
  %35 = load ptr, ptr %5, align 8, !tbaa !8
  %36 = getelementptr inbounds nuw %struct.Min_Cube_t_, ptr %35, i32 0, i32 0
  store ptr %34, ptr %36, align 8, !tbaa !20
  %37 = load ptr, ptr %5, align 8, !tbaa !8
  %38 = load ptr, ptr %3, align 8, !tbaa !27
  %39 = getelementptr inbounds nuw %struct.Min_Man_t_, ptr %38, i32 0, i32 10
  %40 = load ptr, ptr %39, align 8, !tbaa !33
  %41 = load ptr, ptr %5, align 8, !tbaa !8
  %42 = getelementptr inbounds nuw %struct.Min_Cube_t_, ptr %41, i32 0, i32 1
  %43 = load i32, ptr %42, align 8
  %44 = lshr i32 %43, 22
  %45 = zext i32 %44 to i64
  %46 = getelementptr inbounds nuw ptr, ptr %40, i64 %45
  store ptr %37, ptr %46, align 8, !tbaa !8
  %47 = load ptr, ptr %3, align 8, !tbaa !27
  %48 = getelementptr inbounds nuw %struct.Min_Man_t_, ptr %47, i32 0, i32 9
  %49 = load i32, ptr %48, align 8, !tbaa !47
  %50 = add nsw i32 %49, 1
  store i32 %50, ptr %48, align 8, !tbaa !47
  br label %51

51:                                               ; preds = %24
  %52 = load ptr, ptr %6, align 8, !tbaa !8
  store ptr %52, ptr %5, align 8, !tbaa !8
  %53 = load ptr, ptr %5, align 8, !tbaa !8
  %54 = icmp ne ptr %53, null
  br i1 %54, label %55, label %59

55:                                               ; preds = %51
  %56 = load ptr, ptr %5, align 8, !tbaa !8
  %57 = getelementptr inbounds nuw %struct.Min_Cube_t_, ptr %56, i32 0, i32 0
  %58 = load ptr, ptr %57, align 8, !tbaa !20
  br label %60

59:                                               ; preds = %51
  br label %60

60:                                               ; preds = %59, %55
  %61 = phi ptr [ %58, %55 ], [ null, %59 ]
  store ptr %61, ptr %6, align 8, !tbaa !8
  br label %21, !llvm.loop !48

62:                                               ; preds = %21
  call void @llvm.lifetime.end.p0(i64 8, ptr %6) #8
  call void @llvm.lifetime.end.p0(i64 8, ptr %5) #8
  ret void
}