; Function Attrs: nounwind uwtable
define void @Min_CoverExpand(ptr noundef %0, ptr noundef %1) local_unnamed_addr #0 {
  %3 = load i32, ptr %0, align 8, !tbaa !22
  tail call void @Min_ManClean(ptr noundef nonnull %0, i32 noundef %3) #14
  %.not = icmp eq ptr %1, null
  br i1 %.not, label %._crit_edge, label %.lr.ph

.lr.ph:                                           ; preds = %2
  %4 = getelementptr inbounds nuw i8, ptr %0, i64 88
  %5 = load ptr, ptr %4, align 8, !tbaa !26
  %6 = getelementptr inbounds nuw i8, ptr %0, i64 80
  %.promoted = load i32, ptr %6, align 8, !tbaa !37
  br label %7

7:                                                ; preds = %7, %.lr.ph
  %8 = phi i32 [ %.promoted, %.lr.ph ], [ %15, %7 ]
  %.01621 = phi ptr [ %1, %.lr.ph ], [ %.022, %7 ]
  %.022 = load ptr, ptr %.01621, align 8, !tbaa !16
  %9 = getelementptr inbounds nuw i8, ptr %.01621, i64 8
  %10 = load i32, ptr %9, align 8
  %11 = lshr i32 %10, 22
  %12 = zext nneg i32 %11 to i64
  %13 = getelementptr inbounds nuw ptr, ptr %5, i64 %12
  %14 = load ptr, ptr %13, align 8, !tbaa !27
  store ptr %14, ptr %.01621, align 8, !tbaa !16
  store ptr %.01621, ptr %13, align 8, !tbaa !27
  %15 = add nsw i32 %8, 1
  store i32 %15, ptr %6, align 8, !tbaa !37
  %.not19 = icmp eq ptr %.022, null
  br i1 %.not19, label %._crit_edge, label %7, !llvm.loop !38

._crit_edge:                                      ; preds = %7, %2
  ret void
}